target datalayout = "e-m:e-p270:32:32-p271:32:32-p272:64:64-i64:64-i128:128-f80:128-n8:16:32:64-S128"
target triple = "x86_64-pc-linux-gnu"

%struct.Abc_Frame_t_ = type { ptr, ptr, ptr, ptr, ptr, ptr, ptr, ptr, ptr, ptr, i32, i32, i32, i32, i32, ptr, float, float, i32, i32, ptr, ptr, ptr, double, double, ptr, ptr, ptr, ptr, ptr, ptr, ptr, ptr, ptr, ptr, ptr, ptr, float, ptr, i32, ptr, ptr, ptr, ptr, ptr, i32, i32, i32, i32, i32, i32, ptr, ptr, ptr, ptr, ptr, ptr, i32, i32, ptr, ptr, ptr, ptr, ptr, ptr, ptr, ptr, ptr, ptr, ptr, ptr, ptr, ptr, ptr, ptr, ptr, ptr, ptr, ptr, ptr, ptr, ptr, ptr, ptr, ptr, ptr, ptr, ptr, ptr }

@.str.5 = private unnamed_addr constant [2 x i8] c"\0A\00", align 1
@.str.6 = private unnamed_addr constant [116 x i8] c"usage: %s [-c cmd] [-q cmd] [-C cmd] [-Q cmd] [-f script] [-h] [-o file] [-s] [-t type] [-T type] [-x] [-b] [file]\0A\00", align 1
@.str.7 = private unnamed_addr constant [35 x i8] c"    -c cmd\09execute commands `cmd'\0A\00", align 1
@.str.8 = private unnamed_addr constant [43 x i8] c"    -q cmd\09execute commands `cmd' quietly\0A\00", align 1
@.str.9 = private unnamed_addr constant [70 x i8] c"    -C cmd\09execute commands `cmd', then continue in interactive mode\0A\00", align 1
@.str.10 = private unnamed_addr constant [78 x i8] c"    -Q cmd\09execute commands `cmd' quietly, then continue in interactive mode\0A\00", align 1
@.str.11 = private unnamed_addr constant [69 x i8] c"    -F script\09execute commands from a script file and echo commands\0A\00", align 1
@.str.12 = private unnamed_addr constant [51 x i8] c"    -f script\09execute commands from a script file\0A\00", align 1
@.str.13 = private unnamed_addr constant [33 x i8] c"    -h\09\09print the command usage\0A\00", align 1
@.str.14 = private unnamed_addr constant [57 x i8] c"    -o file\09specify output filename to store the result\0A\00", align 1
@.str.15 = private unnamed_addr constant [45 x i8] c"    -s\09\09do not read any initialization file\0A\00", align 1
@.str.16 = private unnamed_addr constant [77 x i8] c"    -t type\09specify input type (blif_mv (default), blif_mvs, blif, or none)\0A\00", align 1
@.str.17 = private unnamed_addr constant [78 x i8] c"    -T type\09specify output type (blif_mv (default), blif_mvs, blif, or none)\0A\00", align 1
@.str.18 = private unnamed_addr constant [41 x i8] c"    -x\09\09equivalent to '-t none -T none'\0A\00", align 1
@.str.19 = private unnamed_addr constant [32 x i8] c"    -b\09\09running in bridge mode\0A\00", align 1

; Function Attrs: nounwind uwtable
define void @Abc_UtilsPrintUsage(ptr noundef %0, ptr noundef %1) #0 {
  %3 = alloca ptr, align 8
  %4 = alloca ptr, align 8
  store ptr %0, ptr %3, align 8, !tbaa !3
  store ptr %1, ptr %4, align 8, !tbaa !25
  %5 = load ptr, ptr %3, align 8, !tbaa !3
  %6 = getelementptr inbounds nuw %struct.Abc_Frame_t_, ptr %5, i32 0, i32 21
  %7 = load ptr, ptr %6, align 8, !tbaa !28
  %8 = call i32 (ptr, ptr, ...) @fprintf(ptr noundef %7, ptr noundef @.str.5) #7
  %9 = load ptr, ptr %3, align 8, !tbaa !3
  %10 = getelementptr inbounds nuw %struct.Abc_Frame_t_, ptr %9, i32 0, i32 21
  %11 = load ptr, ptr %10, align 8, !tbaa !28
  %12 = load ptr, ptr %4, align 8, !tbaa !25
  %13 = call i32 (ptr, ptr, ...) @fprintf(ptr noundef %11, ptr noundef @.str.6, ptr noundef %12) #7
  %14 = load ptr, ptr %3, align 8, !tbaa !3
  %15 = getelementptr inbounds nuw %struct.Abc_Frame_t_, ptr %14, i32 0, i32 21
  %16 = load ptr, ptr %15, align 8, !tbaa !28
  %17 = call i32 (ptr, ptr, ...) @fprintf(ptr noundef %16, ptr noundef @.str.7) #7
  %18 = load ptr, ptr %3, align 8, !tbaa !3
  %19 = getelementptr inbounds nuw %struct.Abc_Frame_t_, ptr %18, i32 0, i32 21
  %20 = load ptr, ptr %19, align 8, !tbaa !28
  %21 = call i32 (ptr, ptr, ...) @fprintf(ptr noundef %20, ptr noundef @.str.8) #7
  %22 = load ptr, ptr %3, align 8, !tbaa !3
  %23 = getelementptr inbounds nuw %struct.Abc_Frame_t_, ptr %22, i32 0, i32 21
  %24 = load ptr, ptr %23, align 8, !tbaa !28
  %25 = call i32 (ptr, ptr, ...) @fprintf(ptr noundef %24, ptr noundef @.str.9) #7
  %26 = load ptr, ptr %3, align 8, !tbaa !3
  %27 = getelementptr inbounds nuw %struct.Abc_Frame_t_, ptr %26, i32 0, i32 21
  %28 = load ptr, ptr %27, align 8, !tbaa !28
  %29 = call i32 (ptr, ptr, ...) @fprintf(ptr noundef %28, ptr noundef @.str.10) #7
  %30 = load ptr, ptr %3, align 8, !tbaa !3
  %31 = getelementptr inbounds nuw %struct.Abc_Frame_t_, ptr %30, i32 0, i32 21
  %32 = load ptr, ptr %31, align 8, !tbaa !28
  %33 = call i32 (ptr, ptr, ...) @fprintf(ptr noundef %32, ptr noundef @.str.11) #7
  %34 = load ptr, ptr %3, align 8, !tbaa !3
  %35 = getelementptr inbounds nuw %struct.Abc_Frame_t_, ptr %34, i32 0, i32 21
  %36 = load ptr, ptr %35, align 8, !tbaa !28
  %37 = call i32 (ptr, ptr, ...) @fprintf(ptr noundef %36, ptr noundef @.str.12) #7
  %38 = load ptr, ptr %3, align 8, !tbaa !3
  %39 = getelementptr inbounds nuw %struct.Abc_Frame_t_, ptr %38, i32 0, i32 21
  %40 = load ptr, ptr %39, align 8, !tbaa !28
  %41 = call i32 (ptr, ptr, ...) @fprintf(ptr noundef %40, ptr noundef @.str.13) #7
  %42 = load ptr, ptr %3, align 8, !tbaa !3
  %43 = getelementptr inbounds nuw %struct.Abc_Frame_t_, ptr %42, i32 0, i32 21
  %44 = load ptr, ptr %43, align 8, !tbaa !28
  %45 = call i32 (ptr, ptr, ...) @fprintf(ptr noundef %44, ptr noundef @.str.14) #7
  %46 = load ptr, ptr %3, align 8, !tbaa !3
  %47 = getelementptr inbounds nuw %struct.Abc_Frame_t_, ptr %46, i32 0, i32 21
  %48 = load ptr, ptr %47, align 8, !tbaa !28
  %49 = call i32 (ptr, ptr, ...) @fprintf(ptr noundef %48, ptr noundef @.str.15) #7
  %50 = load ptr, ptr %3, align 8, !tbaa !3
  %51 = getelementptr inbounds nuw %struct.Abc_Frame_t_, ptr %50, i32 0, i32 21
  %52 = load ptr, ptr %51, align 8, !tbaa !28
  %53 = call i32 (ptr, ptr, ...) @fprintf(ptr noundef %52, ptr noundef @.str.16) #7
  %54 = load ptr, ptr %3, align 8, !tbaa !3
  %55 = getelementptr inbounds nuw %struct.Abc_Frame_t_, ptr %54, i32 0, i32 21
  %56 = load ptr, ptr %55, align 8, !tbaa !28
  %57 = call i32 (ptr, ptr, ...) @fprintf(ptr noundef %56, ptr noundef @.str.17) #7
  %58 = load ptr, ptr %3, align 8, !tbaa !3
  %59 = getelementptr inbounds nuw %struct.Abc_Frame_t_, ptr %58, i32 0, i32 21
  %60 = load ptr, ptr %59, align 8, !tbaa !28
  %61 = call i32 (ptr, ptr, ...) @fprintf(ptr noundef %60, ptr noundef @.str.18) #7
  %62 = load ptr, ptr %3, align 8, !tbaa !3
  %63 = getelementptr inbounds nuw %struct.Abc_Frame_t_, ptr %62, i32 0, i32 21
  %64 = load ptr, ptr %63, align 8, !tbaa !28
  %65 = call i32 (ptr, ptr, ...) @fprintf(ptr noundef %64, ptr noundef @.str.19) #7
  %66 = load ptr, ptr %3, align 8, !tbaa !3
  %67 = getelementptr inbounds nuw %struct.Abc_Frame_t_, ptr %66, i32 0, i32 21
  %68 = load ptr, ptr %67, align 8, !tbaa !28
  %69 = call i32 (ptr, ptr, ...) @fprintf(ptr noundef %68, ptr noundef @.str.5) #7
  ret void
}