; Function Attrs: nofree nounwind uwtable
define void @Abc_UtilsPrintUsage(ptr noundef readonly captures(none) %0, ptr noundef %1) local_unnamed_addr #0 {
  %3 = getelementptr inbounds nuw i8, ptr %0, i64 136
  %4 = load ptr, ptr %3, align 8, !tbaa !26
  %fputc = tail call i32 @fputc(i32 10, ptr %4)
  %5 = load ptr, ptr %3, align 8, !tbaa !26
  %6 = tail call i32 (ptr, ptr, ...) @fprintf(ptr noundef %5, ptr noundef nonnull @.str.6, ptr noundef %1) #10
  %7 = load ptr, ptr %3, align 8, !tbaa !26
  %8 = tail call i64 @fwrite(ptr nonnull @.str.7, i64 34, i64 1, ptr %7)
  %9 = load ptr, ptr %3, align 8, !tbaa !26
  %10 = tail call i64 @fwrite(ptr nonnull @.str.8, i64 42, i64 1, ptr %9)
  %11 = load ptr, ptr %3, align 8, !tbaa !26
  %12 = tail call i64 @fwrite(ptr nonnull @.str.9, i64 69, i64 1, ptr %11)
  %13 = load ptr, ptr %3, align 8, !tbaa !26
  %14 = tail call i64 @fwrite(ptr nonnull @.str.10, i64 77, i64 1, ptr %13)
  %15 = load ptr, ptr %3, align 8, !tbaa !26
  %16 = tail call i64 @fwrite(ptr nonnull @.str.11, i64 68, i64 1, ptr %15)
  %17 = load ptr, ptr %3, align 8, !tbaa !26
  %18 = tail call i64 @fwrite(ptr nonnull @.str.12, i64 50, i64 1, ptr %17)
  %19 = load ptr, ptr %3, align 8, !tbaa !26
  %20 = tail call i64 @fwrite(ptr nonnull @.str.13, i64 32, i64 1, ptr %19)
  %21 = load ptr, ptr %3, align 8, !tbaa !26
  %22 = tail call i64 @fwrite(ptr nonnull @.str.14, i64 56, i64 1, ptr %21)
  %23 = load ptr, ptr %3, align 8, !tbaa !26
  %24 = tail call i64 @fwrite(ptr nonnull @.str.15, i64 44, i64 1, ptr %23)
  %25 = load ptr, ptr %3, align 8, !tbaa !26
  %26 = tail call i64 @fwrite(ptr nonnull @.str.16, i64 76, i64 1, ptr %25)
  %27 = load ptr, ptr %3, align 8, !tbaa !26
  %28 = tail call i64 @fwrite(ptr nonnull @.str.17, i64 77, i64 1, ptr %27)
  %29 = load ptr, ptr %3, align 8, !tbaa !26
  %30 = tail call i64 @fwrite(ptr nonnull @.str.18, i64 40, i64 1, ptr %29)
  %31 = load ptr, ptr %3, align 8, !tbaa !26
  %32 = tail call i64 @fwrite(ptr nonnull @.str.19, i64 31, i64 1, ptr %31)
  %33 = load ptr, ptr %3, align 8, !tbaa !26
  %fputc17 = tail call i32 @fputc(i32 10, ptr %33)
  ret void
}